target datalayout = "e-m:e-p270:32:32-p271:32:32-p272:64:64-i64:64-i128:128-f80:128-n8:16:32:64-S128"
target triple = "x86_64-pc-linux-gnu"

%struct.Abc_TgMan_t_ = type { ptr, i32, i32, i32, i32, i32, [16 x i8], [16 x i8], [16 x i8], [16 x i8], [16 x %struct.TiedGroup_], [16 x i8], [17 x i8], i32, [16 x i8], ptr }
%struct.TiedGroup_ = type { i8, i8 }

; Function Attrs: nounwind uwtable
define internal i32 @Abc_NextPermSwapC(ptr noundef %0, ptr noundef %1, i32 noundef %2) #0 {
  %4 = alloca ptr, align 8
  %5 = alloca ptr, align 8
  %6 = alloca i32, align 4
  %7 = alloca i32, align 4
  %8 = alloca i32, align 4
  %9 = alloca i32, align 4
  store ptr %0, ptr %4, align 8, !tbaa !49
  store ptr %1, ptr %5, align 8, !tbaa !49
  store i32 %2, ptr %6, align 4, !tbaa !8
  call void @llvm.lifetime.start.p0(i64 4, ptr %7) #12
  call void @llvm.lifetime.start.p0(i64 4, ptr %8) #12
  call void @llvm.lifetime.start.p0(i64 4, ptr %9) #12
  store i32 -1, ptr %9, align 4, !tbaa !8
  store i32 0, ptr %7, align 4, !tbaa !8
  br label %10

10:                                               ; preds = %63, %3
  %11 = load i32, ptr %7, align 4, !tbaa !8
  %12 = load i32, ptr %6, align 4, !tbaa !8
  %13 = icmp slt i32 %11, %12
  br i1 %13, label %14, label %66

14:                                               ; preds = %10
  %15 = load i32, ptr %7, align 4, !tbaa !8
  %16 = load ptr, ptr %5, align 8, !tbaa !49
  %17 = load i32, ptr %7, align 4, !tbaa !8
  %18 = sext i32 %17 to i64
  %19 = getelementptr inbounds i8, ptr %16, i64 %18
  %20 = load i8, ptr %19, align 1, !tbaa !51
  %21 = sext i8 %20 to i32
  %22 = add nsw i32 %15, %21
  store i32 %22, ptr %8, align 4, !tbaa !8
  %23 = load i32, ptr %8, align 4, !tbaa !8
  %24 = icmp sge i32 %23, 0
  br i1 %24, label %25, label %62

25:                                               ; preds = %14
  %26 = load i32, ptr %8, align 4, !tbaa !8
  %27 = load i32, ptr %6, align 4, !tbaa !8
  %28 = icmp slt i32 %26, %27
  br i1 %28, label %29, label %62

29:                                               ; preds = %25
  %30 = load ptr, ptr %4, align 8, !tbaa !49
  %31 = load i32, ptr %7, align 4, !tbaa !8
  %32 = sext i32 %31 to i64
  %33 = getelementptr inbounds i8, ptr %30, i64 %32
  %34 = load i8, ptr %33, align 1, !tbaa !51
  %35 = sext i8 %34 to i32
  %36 = load ptr, ptr %4, align 8, !tbaa !49
  %37 = load i32, ptr %8, align 4, !tbaa !8
  %38 = sext i32 %37 to i64
  %39 = getelementptr inbounds i8, ptr %36, i64 %38
  %40 = load i8, ptr %39, align 1, !tbaa !51
  %41 = sext i8 %40 to i32
  %42 = icmp sgt i32 %35, %41
  br i1 %42, label %43, label %62

43:                                               ; preds = %29
  %44 = load i32, ptr %9, align 4, !tbaa !8
  %45 = icmp slt i32 %44, 0
  br i1 %45, label %60, label %46

46:                                               ; preds = %43
  %47 = load ptr, ptr %4, align 8, !tbaa !49
  %48 = load i32, ptr %7, align 4, !tbaa !8
  %49 = sext i32 %48 to i64
  %50 = getelementptr inbounds i8, ptr %47, i64 %49
  %51 = load i8, ptr %50, align 1, !tbaa !51
  %52 = sext i8 %51 to i32
  %53 = load ptr, ptr %4, align 8, !tbaa !49
  %54 = load i32, ptr %9, align 4, !tbaa !8
  %55 = sext i32 %54 to i64
  %56 = getelementptr inbounds i8, ptr %53, i64 %55
  %57 = load i8, ptr %56, align 1, !tbaa !51
  %58 = sext i8 %57 to i32
  %59 = icmp sgt i32 %52, %58
  br i1 %59, label %60, label %62

60:                                               ; preds = %46, %43
  %61 = load i32, ptr %7, align 4, !tbaa !8
  store i32 %61, ptr %9, align 4, !tbaa !8
  br label %62

62:                                               ; preds = %60, %46, %29, %25, %14
  br label %63

63:                                               ; preds = %62
  %64 = load i32, ptr %7, align 4, !tbaa !8
  %65 = add nsw i32 %64, 1
  store i32 %65, ptr %7, align 4, !tbaa !8
  br label %10, !llvm.loop !219

66:                                               ; preds = %10
  %67 = load i32, ptr %9, align 4, !tbaa !8
  %68 = icmp slt i32 %67, 0
  br i1 %68, label %69, label %70

69:                                               ; preds = %66
  store i32 0, ptr %9, align 4, !tbaa !8
  br label %70

70:                                               ; preds = %69, %66
  store i32 0, ptr %7, align 4, !tbaa !8
  br label %71

71:                                               ; preds = %103, %70
  %72 = load i32, ptr %7, align 4, !tbaa !8
  %73 = load i32, ptr %6, align 4, !tbaa !8
  %74 = icmp slt i32 %72, %73
  br i1 %74, label %75, label %106

75:                                               ; preds = %71
  %76 = load ptr, ptr %4, align 8, !tbaa !49
  %77 = load i32, ptr %7, align 4, !tbaa !8
  %78 = sext i32 %77 to i64
  %79 = getelementptr inbounds i8, ptr %76, i64 %78
  %80 = load i8, ptr %79, align 1, !tbaa !51
  %81 = sext i8 %80 to i32
  %82 = load ptr, ptr %4, align 8, !tbaa !49
  %83 = load i32, ptr %9, align 4, !tbaa !8
  %84 = sext i32 %83 to i64
  %85 = getelementptr inbounds i8, ptr %82, i64 %84
  %86 = load i8, ptr %85, align 1, !tbaa !51
  %87 = sext i8 %86 to i32
  %88 = icmp sgt i32 %81, %87
  br i1 %88, label %89, label %102

89:                                               ; preds = %75
  %90 = load ptr, ptr %5, align 8, !tbaa !49
  %91 = load i32, ptr %7, align 4, !tbaa !8
  %92 = sext i32 %91 to i64
  %93 = getelementptr inbounds i8, ptr %90, i64 %92
  %94 = load i8, ptr %93, align 1, !tbaa !51
  %95 = sext i8 %94 to i32
  %96 = sub nsw i32 0, %95
  %97 = trunc i32 %96 to i8
  %98 = load ptr, ptr %5, align 8, !tbaa !49
  %99 = load i32, ptr %7, align 4, !tbaa !8
  %100 = sext i32 %99 to i64
  %101 = getelementptr inbounds i8, ptr %98, i64 %100
  store i8 %97, ptr %101, align 1, !tbaa !51
  br label %102

102:                                              ; preds = %89, %75
  br label %103

103:                                              ; preds = %102
  %104 = load i32, ptr %7, align 4, !tbaa !8
  %105 = add nsw i32 %104, 1
  store i32 %105, ptr %7, align 4, !tbaa !8
  br label %71, !llvm.loop !220

106:                                              ; preds = %71
  %107 = load i32, ptr %9, align 4, !tbaa !8
  %108 = load ptr, ptr %5, align 8, !tbaa !49
  %109 = load i32, ptr %9, align 4, !tbaa !8
  %110 = sext i32 %109 to i64
  %111 = getelementptr inbounds i8, ptr %108, i64 %110
  %112 = load i8, ptr %111, align 1, !tbaa !51
  %113 = sext i8 %112 to i32
  %114 = add nsw i32 %107, %113
  store i32 %114, ptr %8, align 4, !tbaa !8
  %115 = load i32, ptr %8, align 4, !tbaa !8
  %116 = load i32, ptr %9, align 4, !tbaa !8
  %117 = icmp slt i32 %115, %116
  br i1 %117, label %118, label %120

118:                                              ; preds = %106
  %119 = load i32, ptr %8, align 4, !tbaa !8
  br label %122

120:                                              ; preds = %106
  %121 = load i32, ptr %9, align 4, !tbaa !8
  br label %122

122:                                              ; preds = %120, %118
  %123 = phi i32 [ %119, %118 ], [ %121, %120 ]
  call void @llvm.lifetime.end.p0(i64 4, ptr %9) #12
  call void @llvm.lifetime.end.p0(i64 4, ptr %8) #12
  call void @llvm.lifetime.end.p0(i64 4, ptr %7) #12
  ret i32 %123
}

; Function Attrs: nounwind uwtable
define internal i32 @Abc_TgNextPermutation(ptr noundef %0) #0 {
  %2 = alloca i32, align 4
  %3 = alloca ptr, align 8
  %4 = alloca i32, align 4
  %5 = alloca i32, align 4
  %6 = alloca i32, align 4
  %7 = alloca ptr, align 8
  %8 = alloca ptr, align 8
  %9 = alloca ptr, align 8
  %10 = alloca i32, align 4
  store ptr %0, ptr %3, align 8, !tbaa !116
  call void @llvm.lifetime.start.p0(i64 4, ptr %4) #12
  call void @llvm.lifetime.start.p0(i64 4, ptr %5) #12
  call void @llvm.lifetime.start.p0(i64 4, ptr %6) #12
  call void @llvm.lifetime.start.p0(i64 8, ptr %7) #12
  call void @llvm.lifetime.start.p0(i64 8, ptr %8) #12
  call void @llvm.lifetime.start.p0(i64 8, ptr %9) #12
  store i32 0, ptr %4, align 4, !tbaa !8
  br label %11

11:                                               ; preds = %70, %1
  %12 = load i32, ptr %4, align 4, !tbaa !8
  %13 = load ptr, ptr %3, align 8, !tbaa !116
  %14 = getelementptr inbounds nuw %struct.Abc_TgMan_t_, ptr %13, i32 0, i32 3
  %15 = load i32, ptr %14, align 8, !tbaa !127
  %16 = icmp slt i32 %12, %15
  br i1 %16, label %17, label %73

17:                                               ; preds = %11
  %18 = load ptr, ptr %3, align 8, !tbaa !116
  %19 = getelementptr inbounds nuw %struct.Abc_TgMan_t_, ptr %18, i32 0, i32 10
  %20 = getelementptr inbounds [16 x %struct.TiedGroup_], ptr %19, i64 0, i64 0
  %21 = load i32, ptr %4, align 4, !tbaa !8
  %22 = sext i32 %21 to i64
  %23 = getelementptr inbounds %struct.TiedGroup_, ptr %20, i64 %22
  store ptr %23, ptr %7, align 8, !tbaa !174
  %24 = load ptr, ptr %7, align 8, !tbaa !174
  %25 = getelementptr inbounds nuw %struct.TiedGroup_, ptr %24, i32 0, i32 1
  %26 = load i8, ptr %25, align 1, !tbaa !130
  %27 = sext i8 %26 to i32
  store i32 %27, ptr %6, align 4, !tbaa !8
  %28 = load i32, ptr %6, align 4, !tbaa !8
  %29 = icmp eq i32 %28, 1
  br i1 %29, label %30, label %31

30:                                               ; preds = %17
  br label %70

31:                                               ; preds = %17
  %32 = load ptr, ptr %3, align 8, !tbaa !116
  %33 = getelementptr inbounds nuw %struct.Abc_TgMan_t_, ptr %32, i32 0, i32 6
  %34 = getelementptr inbounds [16 x i8], ptr %33, i64 0, i64 0
  %35 = load ptr, ptr %7, align 8, !tbaa !174
  %36 = getelementptr inbounds nuw %struct.TiedGroup_, ptr %35, i32 0, i32 0
  %37 = load i8, ptr %36, align 1, !tbaa !128
  %38 = sext i8 %37 to i32
  %39 = sext i32 %38 to i64
  %40 = getelementptr inbounds i8, ptr %34, i64 %39
  store ptr %40, ptr %8, align 8, !tbaa !49
  %41 = load ptr, ptr %3, align 8, !tbaa !116
  %42 = getelementptr inbounds nuw %struct.Abc_TgMan_t_, ptr %41, i32 0, i32 9
  %43 = getelementptr inbounds [16 x i8], ptr %42, i64 0, i64 0
  %44 = load ptr, ptr %7, align 8, !tbaa !174
  %45 = getelementptr inbounds nuw %struct.TiedGroup_, ptr %44, i32 0, i32 0
  %46 = load i8, ptr %45, align 1, !tbaa !128
  %47 = sext i8 %46 to i32
  %48 = sext i32 %47 to i64
  %49 = getelementptr inbounds i8, ptr %43, i64 %48
  store ptr %49, ptr %9, align 8, !tbaa !49
  %50 = load ptr, ptr %8, align 8, !tbaa !49
  %51 = load ptr, ptr %9, align 8, !tbaa !49
  %52 = load i32, ptr %6, align 4, !tbaa !8
  %53 = call i32 @Abc_NextPermSwapC(ptr noundef %50, ptr noundef %51, i32 noundef %52)
  store i32 %53, ptr %5, align 4, !tbaa !8
  %54 = load i32, ptr %5, align 4, !tbaa !8
  %55 = icmp sge i32 %54, 0
  br i1 %55, label %56, label %64

56:                                               ; preds = %31
  %57 = load ptr, ptr %3, align 8, !tbaa !116
  %58 = load i32, ptr %5, align 4, !tbaa !8
  %59 = load ptr, ptr %7, align 8, !tbaa !174
  %60 = getelementptr inbounds nuw %struct.TiedGroup_, ptr %59, i32 0, i32 0
  %61 = load i8, ptr %60, align 1, !tbaa !128
  %62 = sext i8 %61 to i32
  %63 = add nsw i32 %58, %62
  call void @Abc_TgSwapAdjacentSymGroups(ptr noundef %57, i32 noundef %63)
  store i32 1, ptr %2, align 4
  store i32 1, ptr %10, align 4
  br label %74

64:                                               ; preds = %31
  %65 = load ptr, ptr %3, align 8, !tbaa !116
  %66 = load ptr, ptr %7, align 8, !tbaa !174
  %67 = getelementptr inbounds nuw %struct.TiedGroup_, ptr %66, i32 0, i32 0
  %68 = load i8, ptr %67, align 1, !tbaa !128
  %69 = sext i8 %68 to i32
  call void @Abc_TgSwapAdjacentSymGroups(ptr noundef %65, i32 noundef %69)
  br label %70

70:                                               ; preds = %64, %30
  %71 = load i32, ptr %4, align 4, !tbaa !8
  %72 = add nsw i32 %71, 1
  store i32 %72, ptr %4, align 4, !tbaa !8
  br label %11, !llvm.loop !207

73:                                               ; preds = %11
  store i32 0, ptr %2, align 4
  store i32 1, ptr %10, align 4
  br label %74

74:                                               ; preds = %73, %56
  call void @llvm.lifetime.end.p0(i64 8, ptr %9) #12
  call void @llvm.lifetime.end.p0(i64 8, ptr %8) #12
  call void @llvm.lifetime.end.p0(i64 8, ptr %7) #12
  call void @llvm.lifetime.end.p0(i64 4, ptr %6) #12
  call void @llvm.lifetime.end.p0(i64 4, ptr %5) #12
  call void @llvm.lifetime.end.p0(i64 4, ptr %4) #12
  %75 = load i32, ptr %2, align 4
  ret i32 %75
}