; Function Attrs: nofree norecurse nosync nounwind memory(readwrite, inaccessiblemem: none) uwtable
define internal fastcc range(i32 0, 2) i32 @Abc_TgNextPermutation(ptr noundef nonnull captures(none) %0) unnamed_addr #7 {
  %2 = getelementptr inbounds nuw i8, ptr %0, i64 16
  %3 = load i32, ptr %2, align 8, !tbaa !120
  %4 = icmp sgt i32 %3, 0
  br i1 %4, label %.lr.ph, label %.loopexit

.lr.ph:                                           ; preds = %1
  %5 = getelementptr inbounds nuw i8, ptr %0, i64 92
  %6 = getelementptr inbounds nuw i8, ptr %0, i64 28
  %7 = getelementptr inbounds nuw i8, ptr %0, i64 76
  br label %8

8:                                                ; preds = %.lr.ph, %67
  %9 = phi i32 [ %3, %.lr.ph ], [ %68, %67 ]
  %indvars.iv = phi i64 [ 0, %.lr.ph ], [ %indvars.iv.next, %67 ]
  %10 = getelementptr inbounds nuw %struct.TiedGroup_, ptr %5, i64 %indvars.iv
  %11 = getelementptr inbounds nuw i8, ptr %10, i64 1
  %12 = load i8, ptr %11, align 1, !tbaa !123
  %13 = icmp eq i8 %12, 1
  br i1 %13, label %67, label %14

14:                                               ; preds = %8
  %15 = sext i8 %12 to i32
  %16 = load i8, ptr %10, align 1, !tbaa !121
  %17 = sext i8 %16 to i64
  %18 = getelementptr inbounds i8, ptr %6, i64 %17
  %19 = getelementptr inbounds i8, ptr %7, i64 %17
  %20 = icmp sgt i8 %12, 0
  br i1 %20, label %.lr.ph.preheader.i, label %Abc_NextPermSwapC.exit

.lr.ph.preheader.i:                               ; preds = %14
  %wide.trip.count.i = zext nneg i32 %15 to i64
  br label %.lr.ph.i

.lr.ph.i:                                         ; preds = %41, %.lr.ph.preheader.i
  %indvars.iv.i = phi i64 [ 0, %.lr.ph.preheader.i ], [ %indvars.iv.next.i, %41 ]
  %.044.i = phi i32 [ -1, %.lr.ph.preheader.i ], [ %.1.i, %41 ]
  %21 = getelementptr inbounds nuw i8, ptr %19, i64 %indvars.iv.i
  %22 = load i8, ptr %21, align 1, !tbaa !43
  %23 = sext i8 %22 to i32
  %24 = trunc nuw nsw i64 %indvars.iv.i to i32
  %25 = add nsw i32 %23, %24
  %or.cond.i = icmp ult i32 %25, %15
  br i1 %or.cond.i, label %26, label %41

26:                                               ; preds = %.lr.ph.i
  %27 = getelementptr inbounds nuw i8, ptr %18, i64 %indvars.iv.i
  %28 = load i8, ptr %27, align 1, !tbaa !43
  %29 = zext nneg i32 %25 to i64
  %30 = getelementptr inbounds nuw i8, ptr %18, i64 %29
  %31 = load i8, ptr %30, align 1, !tbaa !43
  %32 = icmp sgt i8 %28, %31
  br i1 %32, label %33, label %41

33:                                               ; preds = %26
  %34 = icmp slt i32 %.044.i, 0
  br i1 %34, label %40, label %35

35:                                               ; preds = %33
  %36 = zext nneg i32 %.044.i to i64
  %37 = getelementptr inbounds nuw i8, ptr %18, i64 %36
  %38 = load i8, ptr %37, align 1, !tbaa !43
  %39 = icmp sgt i8 %28, %38
  br i1 %39, label %40, label %41

40:                                               ; preds = %35, %33
  br label %41

41:                                               ; preds = %40, %35, %26, %.lr.ph.i
  %.1.i = phi i32 [ %24, %40 ], [ %.044.i, %35 ], [ %.044.i, %26 ], [ %.044.i, %.lr.ph.i ]
  %indvars.iv.next.i = add nuw nsw i64 %indvars.iv.i, 1
  %exitcond.not.i = icmp eq i64 %indvars.iv.next.i, %wide.trip.count.i
  br i1 %exitcond.not.i, label %._crit_edge.i, label %.lr.ph.i, !llvm.loop !181

._crit_edge.i:                                    ; preds = %41
  %spec.store.select.i = tail call i32 @llvm.smax.i32(i32 %.1.i, i32 0)
  %42 = zext nneg i32 %spec.store.select.i to i64
  %43 = getelementptr inbounds nuw i8, ptr %18, i64 %42
  br label %44

44:                                               ; preds = %53, %._crit_edge.i
  %indvars.iv50.i = phi i64 [ 0, %._crit_edge.i ], [ %indvars.iv.next51.i, %53 ]
  %45 = getelementptr inbounds nuw i8, ptr %18, i64 %indvars.iv50.i
  %46 = load i8, ptr %45, align 1, !tbaa !43
  %47 = load i8, ptr %43, align 1, !tbaa !43
  %48 = icmp sgt i8 %46, %47
  br i1 %48, label %49, label %53

49:                                               ; preds = %44
  %50 = getelementptr inbounds nuw i8, ptr %19, i64 %indvars.iv50.i
  %51 = load i8, ptr %50, align 1, !tbaa !43
  %52 = sub i8 0, %51
  store i8 %52, ptr %50, align 1, !tbaa !43
  br label %53

53:                                               ; preds = %49, %44
  %indvars.iv.next51.i = add nuw nsw i64 %indvars.iv50.i, 1
  %exitcond54.not.i = icmp eq i64 %indvars.iv.next51.i, %wide.trip.count.i
  br i1 %exitcond54.not.i, label %Abc_NextPermSwapC.exit, label %44, !llvm.loop !182

Abc_NextPermSwapC.exit:                           ; preds = %53, %14
  %spec.store.select57.i = phi i32 [ 0, %14 ], [ %spec.store.select.i, %53 ]
  %.pre-phi.i = phi i64 [ 0, %14 ], [ %42, %53 ]
  %54 = getelementptr inbounds nuw i8, ptr %19, i64 %.pre-phi.i
  %55 = load i8, ptr %54, align 1, !tbaa !43
  %56 = sext i8 %55 to i32
  %57 = add nsw i32 %spec.store.select57.i, %56
  %58 = icmp sgt i32 %57, -1
  br i1 %58, label %59, label %64

59:                                               ; preds = %Abc_NextPermSwapC.exit
  %60 = tail call range(i32 -128, -2147483648) i32 @llvm.smin.i32(i32 %57, i32 %spec.store.select57.i)
  %61 = load i8, ptr %10, align 1, !tbaa !121
  %62 = sext i8 %61 to i32
  %63 = add nsw i32 %60, %62
  tail call fastcc void @Abc_TgSwapAdjacentSymGroups(ptr noundef %0, i32 noundef %63)
  br label %.loopexit

64:                                               ; preds = %Abc_NextPermSwapC.exit
  %65 = load i8, ptr %10, align 1, !tbaa !121
  %66 = sext i8 %65 to i32
  tail call fastcc void @Abc_TgSwapAdjacentSymGroups(ptr noundef %0, i32 noundef %66)
  %.pre = load i32, ptr %2, align 8, !tbaa !120
  br label %67

67:                                               ; preds = %8, %64
  %68 = phi i32 [ %9, %8 ], [ %.pre, %64 ]
  %indvars.iv.next = add nuw nsw i64 %indvars.iv, 1
  %69 = sext i32 %68 to i64
  %70 = icmp slt i64 %indvars.iv.next, %69
  br i1 %70, label %8, label %.loopexit, !llvm.loop !183

.loopexit:                                        ; preds = %67, %1, %59
  %.0 = phi i32 [ 1, %59 ], [ 0, %1 ], [ 0, %67 ]
  ret i32 %.0
}